target datalayout = "e-m:e-p270:32:32-p271:32:32-p272:64:64-i64:64-i128:128-f80:128-n8:16:32:64-S128"
target triple = "x86_64-pc-linux-gnu"

%struct.SDL_AtomicInt = type { i32 }
%struct.VulkanRenderer = type { ptr, ptr, %struct.VkPhysicalDeviceProperties2, %struct.VkPhysicalDeviceDriverProperties, %struct.VkPhysicalDeviceFeatures, ptr, i8, i8, i8, i8, i8, i8, i32, i32, %struct.VulkanExtensions, i8, i8, i8, i8, ptr, %struct.VkPhysicalDeviceMemoryProperties, i8, ptr, i32, i32, i32, ptr, ptr, i32, i32, %struct.VulkanFencePool, ptr, ptr, ptr, ptr, ptr, ptr, ptr, i32, i32, ptr, i32, i32, %struct.SDL_AtomicInt, i32, ptr, i32, i32, ptr, i32, i32, ptr, i32, i32, ptr, i32, i32, ptr, i32, i32, ptr, i32, i32, ptr, i32, i32, ptr, ptr, ptr, ptr, ptr, ptr, ptr, ptr, ptr, ptr, ptr, i8, ptr, i32, i32, ptr, ptr, ptr, ptr, ptr, ptr, ptr, ptr, ptr, ptr, ptr, ptr, ptr, ptr, ptr, ptr, ptr, ptr, ptr, ptr, ptr, ptr, ptr, ptr, ptr, ptr, ptr, ptr, ptr, ptr, ptr, ptr, ptr, ptr, ptr, ptr, ptr, ptr, ptr, ptr, ptr, ptr, ptr, ptr, ptr, ptr, ptr, ptr, ptr, ptr, ptr, ptr, ptr, ptr, ptr, ptr, ptr, ptr, ptr, ptr, ptr, ptr, ptr, ptr, ptr, ptr, ptr, ptr, ptr, ptr, ptr, ptr, ptr, ptr, ptr, ptr, ptr, ptr, ptr, ptr, ptr, ptr, ptr, ptr, ptr, ptr, ptr, ptr, ptr, ptr, ptr, ptr, ptr, ptr, ptr, ptr, ptr, ptr, ptr, ptr, ptr, ptr, ptr, ptr, ptr, ptr, ptr, ptr, ptr, ptr }
%struct.VkPhysicalDeviceProperties2 = type { i32, ptr, %struct.VkPhysicalDeviceProperties }
%struct.VkPhysicalDeviceProperties = type { i32, i32, i32, i32, i32, [256 x i8], [16 x i8], %struct.VkPhysicalDeviceLimits, %struct.VkPhysicalDeviceSparseProperties }
%struct.VkPhysicalDeviceLimits = type { i32, i32, i32, i32, i32, i32, i32, i32, i32, i32, i32, i64, i64, i32, i32, i32, i32, i32, i32, i32, i32, i32, i32, i32, i32, i32, i32, i32, i32, i32, i32, i32, i32, i32, i32, i32, i32, i32, i32, i32, i32, i32, i32, i32, i32, i32, i32, i32, i32, i32, i32, i32, [3 x i32], i32, [3 x i32], i32, i32, i32, i32, i32, float, float, i32, [2 x i32], [2 x float], i32, i64, i64, i64, i64, i32, i32, i32, i32, float, float, i32, i32, i32, i32, i32, i32, i32, i32, i32, i32, i32, i32, i32, i32, i32, i32, float, i32, i32, i32, i32, [2 x float], [2 x float], float, float, i32, i32, i64, i64, i64 }
%struct.VkPhysicalDeviceSparseProperties = type { i32, i32, i32, i32, i32 }
%struct.VkPhysicalDeviceDriverProperties = type { i32, ptr, i32, [256 x i8], [256 x i8], %struct.VkConformanceVersion }
%struct.VkConformanceVersion = type { i8, i8, i8, i8 }
%struct.VkPhysicalDeviceFeatures = type { i32, i32, i32, i32, i32, i32, i32, i32, i32, i32, i32, i32, i32, i32, i32, i32, i32, i32, i32, i32, i32, i32, i32, i32, i32, i32, i32, i32, i32, i32, i32, i32, i32, i32, i32, i32, i32, i32, i32, i32, i32, i32, i32, i32, i32, i32, i32, i32, i32, i32, i32, i32, i32, i32, i32 }
%struct.VulkanExtensions = type { i8, i8, i8, i8, i8 }
%struct.VkPhysicalDeviceMemoryProperties = type { i32, [32 x %struct.VkMemoryType], i32, [16 x %struct.VkMemoryHeap] }
%struct.VkMemoryType = type { i32, i32 }
%struct.VkMemoryHeap = type { i64, i32 }
%struct.VulkanFencePool = type { ptr, ptr, i32, i32 }
%struct.VulkanCommandBuffer = type { %struct.CommandBufferCommonHeader, ptr, ptr, ptr, ptr, i32, i32, ptr, i32, i32, ptr, i32, i32, ptr, ptr, [4 x ptr], i32, [4 x ptr], i32, ptr, %struct.VkViewport, %struct.VkRect2D, [4 x float], i8, ptr, i8, i8, i8, i8, i8, i8, i8, i8, i8, i8, ptr, ptr, ptr, ptr, ptr, ptr, ptr, [16 x ptr], [16 x i64], i32, i8, [16 x ptr], [16 x ptr], [8 x ptr], [8 x ptr], [16 x ptr], [16 x ptr], [8 x ptr], [8 x ptr], [8 x ptr], i32, [8 x ptr], [16 x ptr], [16 x ptr], [8 x ptr], [8 x ptr], [4 x ptr], [4 x ptr], [4 x ptr], ptr, i32, i32, ptr, i32, i32, ptr, i32, i32, ptr, i32, i32, ptr, i32, i32, ptr, i32, i32, ptr, i32, i32, ptr, i8, i8 }
%struct.CommandBufferCommonHeader = type { ptr, %struct.RenderPass, i8, %struct.Pass, i8, %struct.Pass, i8, i8, i8 }
%struct.RenderPass = type { ptr, i8, [4 x ptr], i32, ptr }
%struct.Pass = type { ptr, i8 }
%struct.VkViewport = type { float, float, float, float, float, float }
%struct.VkRect2D = type { %struct.VkOffset2D, %struct.VkExtent2D }
%struct.VkOffset2D = type { i32, i32 }
%struct.VkExtent2D = type { i32, i32 }

; Function Attrs: nounwind uwtable
define internal void @VULKAN_EndRenderPass(ptr noundef %0) #0 {
  %2 = alloca ptr, align 8
  %3 = alloca ptr, align 8
  %4 = alloca ptr, align 8
  %5 = alloca i32, align 4
  store ptr %0, ptr %2, align 8
  call void @llvm.lifetime.start.p0(i64 8, ptr %3) #9
  %6 = load ptr, ptr %2, align 8
  store ptr %6, ptr %3, align 8
  call void @llvm.lifetime.start.p0(i64 8, ptr %4) #9
  %7 = load ptr, ptr %3, align 8
  %8 = getelementptr inbounds nuw %struct.VulkanCommandBuffer, ptr %7, i32 0, i32 1
  %9 = load ptr, ptr %8, align 8
  store ptr %9, ptr %4, align 8
  call void @llvm.lifetime.start.p0(i64 4, ptr %5) #9
  %10 = load ptr, ptr %4, align 8
  %11 = getelementptr inbounds nuw %struct.VulkanRenderer, ptr %10, i32 0, i32 127
  %12 = load ptr, ptr %11, align 8
  %13 = load ptr, ptr %3, align 8
  %14 = getelementptr inbounds nuw %struct.VulkanCommandBuffer, ptr %13, i32 0, i32 2
  %15 = load ptr, ptr %14, align 8
  call void %12(ptr noundef %15)
  store i32 0, ptr %5, align 4
  br label %16

16:                                               ; preds = %31, %1
  %17 = load i32, ptr %5, align 4
  %18 = load ptr, ptr %3, align 8
  %19 = getelementptr inbounds nuw %struct.VulkanCommandBuffer, ptr %18, i32 0, i32 16
  %20 = load i32, ptr %19, align 8
  %21 = icmp ult i32 %17, %20
  br i1 %21, label %22, label %34

22:                                               ; preds = %16
  %23 = load ptr, ptr %4, align 8
  %24 = load ptr, ptr %3, align 8
  %25 = load ptr, ptr %3, align 8
  %26 = getelementptr inbounds nuw %struct.VulkanCommandBuffer, ptr %25, i32 0, i32 15
  %27 = load i32, ptr %5, align 4
  %28 = zext i32 %27 to i64
  %29 = getelementptr inbounds nuw [4 x ptr], ptr %26, i64 0, i64 %28
  %30 = load ptr, ptr %29, align 8
  call void @VULKAN_INTERNAL_TextureSubresourceTransitionToDefaultUsage(ptr noundef %23, ptr noundef %24, i32 noundef 7, ptr noundef %30)
  br label %31

31:                                               ; preds = %22
  %32 = load i32, ptr %5, align 4
  %33 = add i32 %32, 1
  store i32 %33, ptr %5, align 4
  br label %16, !llvm.loop !42

34:                                               ; preds = %16
  %35 = load ptr, ptr %3, align 8
  %36 = getelementptr inbounds nuw %struct.VulkanCommandBuffer, ptr %35, i32 0, i32 16
  store i32 0, ptr %36, align 8
  store i32 0, ptr %5, align 4
  br label %37

37:                                               ; preds = %52, %34
  %38 = load i32, ptr %5, align 4
  %39 = load ptr, ptr %3, align 8
  %40 = getelementptr inbounds nuw %struct.VulkanCommandBuffer, ptr %39, i32 0, i32 18
  %41 = load i32, ptr %40, align 8
  %42 = icmp ult i32 %38, %41
  br i1 %42, label %43, label %55

43:                                               ; preds = %37
  %44 = load ptr, ptr %4, align 8
  %45 = load ptr, ptr %3, align 8
  %46 = load ptr, ptr %3, align 8
  %47 = getelementptr inbounds nuw %struct.VulkanCommandBuffer, ptr %46, i32 0, i32 17
  %48 = load i32, ptr %5, align 4
  %49 = zext i32 %48 to i64
  %50 = getelementptr inbounds nuw [4 x ptr], ptr %47, i64 0, i64 %49
  %51 = load ptr, ptr %50, align 8
  call void @VULKAN_INTERNAL_TextureSubresourceTransitionToDefaultUsage(ptr noundef %44, ptr noundef %45, i32 noundef 7, ptr noundef %51)
  br label %52

52:                                               ; preds = %43
  %53 = load i32, ptr %5, align 4
  %54 = add i32 %53, 1
  store i32 %54, ptr %5, align 4
  br label %37, !llvm.loop !43

55:                                               ; preds = %37
  %56 = load ptr, ptr %3, align 8
  %57 = getelementptr inbounds nuw %struct.VulkanCommandBuffer, ptr %56, i32 0, i32 18
  store i32 0, ptr %57, align 8
  %58 = load ptr, ptr %3, align 8
  %59 = getelementptr inbounds nuw %struct.VulkanCommandBuffer, ptr %58, i32 0, i32 19
  %60 = load ptr, ptr %59, align 8
  %61 = icmp ne ptr %60, null
  br i1 %61, label %62, label %70

62:                                               ; preds = %55
  %63 = load ptr, ptr %4, align 8
  %64 = load ptr, ptr %3, align 8
  %65 = load ptr, ptr %3, align 8
  %66 = getelementptr inbounds nuw %struct.VulkanCommandBuffer, ptr %65, i32 0, i32 19
  %67 = load ptr, ptr %66, align 8
  call void @VULKAN_INTERNAL_TextureSubresourceTransitionToDefaultUsage(ptr noundef %63, ptr noundef %64, i32 noundef 8, ptr noundef %67)
  %68 = load ptr, ptr %3, align 8
  %69 = getelementptr inbounds nuw %struct.VulkanCommandBuffer, ptr %68, i32 0, i32 19
  store ptr null, ptr %69, align 8
  br label %70

70:                                               ; preds = %62, %55
  %71 = load ptr, ptr %3, align 8
  %72 = getelementptr inbounds nuw %struct.VulkanCommandBuffer, ptr %71, i32 0, i32 14
  store ptr null, ptr %72, align 8
  %73 = load ptr, ptr %3, align 8
  %74 = getelementptr inbounds nuw %struct.VulkanCommandBuffer, ptr %73, i32 0, i32 35
  store ptr null, ptr %74, align 8
  %75 = load ptr, ptr %3, align 8
  %76 = getelementptr inbounds nuw %struct.VulkanCommandBuffer, ptr %75, i32 0, i32 36
  store ptr null, ptr %76, align 8
  %77 = load ptr, ptr %3, align 8
  %78 = getelementptr inbounds nuw %struct.VulkanCommandBuffer, ptr %77, i32 0, i32 37
  store ptr null, ptr %78, align 8
  %79 = load ptr, ptr %3, align 8
  %80 = getelementptr inbounds nuw %struct.VulkanCommandBuffer, ptr %79, i32 0, i32 38
  store ptr null, ptr %80, align 8
  %81 = load ptr, ptr %3, align 8
  %82 = getelementptr inbounds nuw %struct.VulkanCommandBuffer, ptr %81, i32 0, i32 15
  %83 = getelementptr inbounds [4 x ptr], ptr %82, i64 0, i64 0
  call void @llvm.memset.p0.i64(ptr align 8 %83, i8 0, i64 32, i1 false)
  %84 = load ptr, ptr %3, align 8
  %85 = getelementptr inbounds nuw %struct.VulkanCommandBuffer, ptr %84, i32 0, i32 17
  %86 = getelementptr inbounds [4 x ptr], ptr %85, i64 0, i64 0
  call void @llvm.memset.p0.i64(ptr align 8 %86, i8 0, i64 32, i1 false)
  %87 = load ptr, ptr %3, align 8
  %88 = getelementptr inbounds nuw %struct.VulkanCommandBuffer, ptr %87, i32 0, i32 19
  store ptr null, ptr %88, align 8
  %89 = load ptr, ptr %3, align 8
  %90 = getelementptr inbounds nuw %struct.VulkanCommandBuffer, ptr %89, i32 0, i32 42
  %91 = getelementptr inbounds [16 x ptr], ptr %90, i64 0, i64 0
  call void @llvm.memset.p0.i64(ptr align 8 %91, i8 0, i64 128, i1 false)
  %92 = load ptr, ptr %3, align 8
  %93 = getelementptr inbounds nuw %struct.VulkanCommandBuffer, ptr %92, i32 0, i32 43
  %94 = getelementptr inbounds [16 x i64], ptr %93, i64 0, i64 0
  call void @llvm.memset.p0.i64(ptr align 8 %94, i8 0, i64 128, i1 false)
  %95 = load ptr, ptr %3, align 8
  %96 = getelementptr inbounds nuw %struct.VulkanCommandBuffer, ptr %95, i32 0, i32 44
  store i32 0, ptr %96, align 8
  %97 = load ptr, ptr %3, align 8
  %98 = getelementptr inbounds nuw %struct.VulkanCommandBuffer, ptr %97, i32 0, i32 47
  %99 = getelementptr inbounds [16 x ptr], ptr %98, i64 0, i64 0
  call void @llvm.memset.p0.i64(ptr align 8 %99, i8 0, i64 128, i1 false)
  %100 = load ptr, ptr %3, align 8
  %101 = getelementptr inbounds nuw %struct.VulkanCommandBuffer, ptr %100, i32 0, i32 46
  %102 = getelementptr inbounds [16 x ptr], ptr %101, i64 0, i64 0
  call void @llvm.memset.p0.i64(ptr align 8 %102, i8 0, i64 128, i1 false)
  %103 = load ptr, ptr %3, align 8
  %104 = getelementptr inbounds nuw %struct.VulkanCommandBuffer, ptr %103, i32 0, i32 48
  %105 = getelementptr inbounds [8 x ptr], ptr %104, i64 0, i64 0
  call void @llvm.memset.p0.i64(ptr align 8 %105, i8 0, i64 64, i1 false)
  %106 = load ptr, ptr %3, align 8
  %107 = getelementptr inbounds nuw %struct.VulkanCommandBuffer, ptr %106, i32 0, i32 49
  %108 = getelementptr inbounds [8 x ptr], ptr %107, i64 0, i64 0
  call void @llvm.memset.p0.i64(ptr align 8 %108, i8 0, i64 64, i1 false)
  %109 = load ptr, ptr %3, align 8
  %110 = getelementptr inbounds nuw %struct.VulkanCommandBuffer, ptr %109, i32 0, i32 51
  %111 = getelementptr inbounds [16 x ptr], ptr %110, i64 0, i64 0
  call void @llvm.memset.p0.i64(ptr align 8 %111, i8 0, i64 128, i1 false)
  %112 = load ptr, ptr %3, align 8
  %113 = getelementptr inbounds nuw %struct.VulkanCommandBuffer, ptr %112, i32 0, i32 50
  %114 = getelementptr inbounds [16 x ptr], ptr %113, i64 0, i64 0
  call void @llvm.memset.p0.i64(ptr align 8 %114, i8 0, i64 128, i1 false)
  %115 = load ptr, ptr %3, align 8
  %116 = getelementptr inbounds nuw %struct.VulkanCommandBuffer, ptr %115, i32 0, i32 52
  %117 = getelementptr inbounds [8 x ptr], ptr %116, i64 0, i64 0
  call void @llvm.memset.p0.i64(ptr align 8 %117, i8 0, i64 64, i1 false)
  %118 = load ptr, ptr %3, align 8
  %119 = getelementptr inbounds nuw %struct.VulkanCommandBuffer, ptr %118, i32 0, i32 53
  %120 = getelementptr inbounds [8 x ptr], ptr %119, i64 0, i64 0
  call void @llvm.memset.p0.i64(ptr align 8 %120, i8 0, i64 64, i1 false)
  call void @llvm.lifetime.end.p0(i64 4, ptr %5) #9
  call void @llvm.lifetime.end.p0(i64 8, ptr %4) #9
  call void @llvm.lifetime.end.p0(i64 8, ptr %3) #9
  ret void
}