; Function Attrs: nounwind uwtable
define internal void @VULKAN_EndRenderPass(ptr noundef captures(none) %0) #0 {
  %2 = getelementptr inbounds nuw i8, ptr %0, i64 128
  %3 = load ptr, ptr %2, align 8
  %4 = getelementptr inbounds nuw i8, ptr %3, i64 2944
  %5 = load ptr, ptr %4, align 8
  %6 = getelementptr inbounds nuw i8, ptr %0, i64 136
  %7 = load ptr, ptr %6, align 8
  tail call void %5(ptr noundef %7) #13
  %8 = getelementptr inbounds nuw i8, ptr %0, i64 248
  %9 = load i32, ptr %8, align 8
  %.not50 = icmp eq i32 %9, 0
  br i1 %.not50, label %._crit_edge, label %.lr.ph

.lr.ph:                                           ; preds = %1
  %10 = getelementptr inbounds nuw i8, ptr %0, i64 216
  br label %11

11:                                               ; preds = %.lr.ph, %11
  %indvars.iv = phi i64 [ 0, %.lr.ph ], [ %indvars.iv.next, %11 ]
  %12 = getelementptr inbounds nuw [4 x ptr], ptr %10, i64 0, i64 %indvars.iv
  %13 = load ptr, ptr %12, align 8
  tail call fastcc void @VULKAN_INTERNAL_TextureSubresourceTransitionToDefaultUsage(ptr noundef nonnull %3, ptr noundef nonnull %0, i32 noundef 7, ptr noundef %13)
  %indvars.iv.next = add nuw nsw i64 %indvars.iv, 1
  %14 = load i32, ptr %8, align 8
  %15 = zext i32 %14 to i64
  %16 = icmp samesign ult i64 %indvars.iv.next, %15
  br i1 %16, label %11, label %._crit_edge, !llvm.loop !56

._crit_edge:                                      ; preds = %11, %1
  store i32 0, ptr %8, align 8
  %17 = getelementptr inbounds nuw i8, ptr %0, i64 288
  %18 = load i32, ptr %17, align 8
  %.not51 = icmp eq i32 %18, 0
  br i1 %.not51, label %._crit_edge49, label %.lr.ph48

.lr.ph48:                                         ; preds = %._crit_edge
  %19 = getelementptr inbounds nuw i8, ptr %0, i64 256
  br label %20

20:                                               ; preds = %.lr.ph48, %20
  %indvars.iv53 = phi i64 [ 0, %.lr.ph48 ], [ %indvars.iv.next54, %20 ]
  %21 = getelementptr inbounds nuw [4 x ptr], ptr %19, i64 0, i64 %indvars.iv53
  %22 = load ptr, ptr %21, align 8
  tail call fastcc void @VULKAN_INTERNAL_TextureSubresourceTransitionToDefaultUsage(ptr noundef nonnull %3, ptr noundef nonnull %0, i32 noundef 7, ptr noundef %22)
  %indvars.iv.next54 = add nuw nsw i64 %indvars.iv53, 1
  %23 = load i32, ptr %17, align 8
  %24 = zext i32 %23 to i64
  %25 = icmp samesign ult i64 %indvars.iv.next54, %24
  br i1 %25, label %20, label %._crit_edge49, !llvm.loop !57

._crit_edge49:                                    ; preds = %20, %._crit_edge
  store i32 0, ptr %17, align 8
  %26 = getelementptr inbounds nuw i8, ptr %0, i64 296
  %27 = load ptr, ptr %26, align 8
  %.not = icmp eq ptr %27, null
  br i1 %.not, label %29, label %28

28:                                               ; preds = %._crit_edge49
  tail call fastcc void @VULKAN_INTERNAL_TextureSubresourceTransitionToDefaultUsage(ptr noundef nonnull %3, ptr noundef nonnull %0, i32 noundef 8, ptr noundef nonnull %27)
  br label %29

29:                                               ; preds = %28, %._crit_edge49
  %30 = getelementptr inbounds nuw i8, ptr %0, i64 208
  %31 = getelementptr inbounds nuw i8, ptr %0, i64 392
  %32 = getelementptr inbounds nuw i8, ptr %0, i64 256
  tail call void @llvm.memset.p0.i64(ptr noundef nonnull align 8 dereferenceable(32) %32, i8 0, i64 32, i1 false)
  store ptr null, ptr %26, align 8
  %33 = getelementptr inbounds nuw i8, ptr %0, i64 448
  %34 = getelementptr inbounds nuw i8, ptr %0, i64 712
  tail call void @llvm.memset.p0.i64(ptr noundef nonnull align 8 dereferenceable(40) %30, i8 0, i64 40, i1 false)
  tail call void @llvm.memset.p0.i64(ptr noundef nonnull align 8 dereferenceable(32) %31, i8 0, i64 32, i1 false)
  tail call void @llvm.memset.p0.i64(ptr noundef nonnull align 8 dereferenceable(260) %33, i8 0, i64 260, i1 false)
  tail call void @llvm.memset.p0.i64(ptr noundef nonnull align 8 dereferenceable(768) %34, i8 0, i64 768, i1 false)
  ret void
}